(dp1
S'docs'
p2
(dp3
S'doc:views/pattern-library/sass/components.md|jinja|pandoc'
p4
(dp5
S'filters-data'
p6
(lp7
(S'generic'
p8
S'views/pattern-library/sass/components.md|jinja'
p9
S'.md'
p10
S'5f94fd44996d0e10099c4dee062a8c77-001-jinja'
p11
(dp12
S'help'
p13
S'Data type representing generic binary or text-based data in a single blob.'
p14
sS'title'
p15
NsS'storage-type'
p16
g8
sS'shortcut'
p17
NsS'canonical-name'
p18
S'views/pattern-library/sass/components.md'
p19
sS'canonical-output'
p20
I01
sS'output-name'
p21
NsS'aliases'
p22
(lp23
g8
astp24
a(g8
S'views/pattern-library/sass/components.md|jinja|pandoc'
p25
S'.html'
p26
S'5f94fd44996d0e10099c4dee062a8c77-002-jinja-pandoc'
p27
(dp28
g13
g14
sg15
Nsg16
g8
sg17
Nsg18
S'views/pattern-library/sass/components.html'
p29
sg20
I01
sg21
Nsg22
g23
stp30
asS'output-data'
p31
(g8
g25
g26
g27
(dp32
g13
g14
sg15
Nsg16
g8
sg17
Nsg18
g29
sg20
I01
sg21
Nsg22
g23
stp33
sg15
S'Components'
p34
sS'finish_time'
p35
F1423954118.942472
sS'start_time'
p36
F1423954118.817857
sS'input-data'
p37
(g8
S'views/pattern-library/sass/components.md'
p38
g10
S'5f94fd44996d0e10099c4dee062a8c77-000'
p39
(dp40
g13
g14
sg15
Nsg16
g8
sg17
Nsg18
g38
sg20
Nsg21
Nsg22
g23
stp41
sS'state'
p42
S'running'
p43
sS'elapsed'
p44
F0.12461495399475098
ssS'doc:views/docs/stylesheetTesting.md|jinja|pandoc'
p45
(dp46
g6
(lp47
(g8
S'views/docs/stylesheetTesting.md|jinja'
p48
S'.md'
p49
S'd7e8be9e815d8df57a4d91fe97d0a5e0-001-jinja'
p50
(dp51
g13
g14
sg15
Nsg16
g8
sg17
Nsg18
S'views/docs/stylesheetTesting.md'
p52
sg20
I01
sg21
Nsg22
g23
stp53
a(g8
S'views/docs/stylesheetTesting.md|jinja|pandoc'
p54
g26
S'd7e8be9e815d8df57a4d91fe97d0a5e0-002-jinja-pandoc'
p55
(dp56
g13
g14
sg15
Nsg16
g8
sg17
Nsg18
S'views/docs/stylesheetTesting.html'
p57
sg20
I01
sg21
Nsg22
g23
stp58
asg31
(g8
g54
g26
g55
(dp59
g13
g14
sg15
Nsg16
g8
sg17
Nsg18
g57
sg20
I01
sg21
Nsg22
g23
stp60
sg15
S'Stylesheet Testing'
p61
sg35
F1423954120.686909
sg36
F1423954120.611268
sg37
(g8
S'views/docs/stylesheetTesting.md'
p62
g49
S'd7e8be9e815d8df57a4d91fe97d0a5e0-000'
p63
(dp64
g13
g14
sg15
Nsg16
g8
sg17
Nsg18
g62
sg20
Nsg21
Nsg22
g23
stp65
sg42
g43
sg44
F0.07564091682434082
ssS'doc:views/pattern-library/sass/objects.md|jinja|pandoc'
p66
(dp67
g6
(lp68
(g8
S'views/pattern-library/sass/objects.md|jinja'
p69
S'.md'
p70
S'26d9e39731721e488e0fc2ddded4b603-001-jinja'
p71
(dp72
g13
g14
sg15
Nsg16
g8
sg17
Nsg18
S'views/pattern-library/sass/objects.md'
p73
sg20
I01
sg21
Nsg22
g23
stp74
a(g8
S'views/pattern-library/sass/objects.md|jinja|pandoc'
p75
g26
S'26d9e39731721e488e0fc2ddded4b603-002-jinja-pandoc'
p76
(dp77
g13
g14
sg15
Nsg16
g8
sg17
Nsg18
S'views/pattern-library/sass/objects.html'
p78
sg20
I01
sg21
Nsg22
g23
stp79
asg31
(g8
g75
g26
g76
(dp80
g13
g14
sg15
Nsg16
g8
sg17
Nsg18
g78
sg20
I01
sg21
Nsg22
g23
stp81
sg15
S'Objects'
p82
sg35
F1423954120.15325
sg36
F1423954120.0777349
sg37
(g8
S'views/pattern-library/sass/objects.md'
p83
g70
S'26d9e39731721e488e0fc2ddded4b603-000'
p84
(dp85
g13
g14
sg15
Nsg16
g8
sg17
Nsg18
g83
sg20
Nsg21
Nsg22
g23
stp86
sg42
g43
sg44
F0.075515031814575195
ssS'doc:views/docs/archetypeModules.md|jinja|pandoc'
p87
(dp88
g6
(lp89
(g8
S'views/docs/archetypeModules.md|jinja'
p90
S'.md'
p91
S'837f9cbb6bff6652c91b93af16aae04d-001-jinja'
p92
(dp93
g13
g14
sg15
Nsg16
g8
sg17
Nsg18
S'views/docs/archetypeModules.md'
p94
sg20
I01
sg21
Nsg22
g23
stp95
a(g8
S'views/docs/archetypeModules.md|jinja|pandoc'
p96
g26
S'837f9cbb6bff6652c91b93af16aae04d-002-jinja-pandoc'
p97
(dp98
g13
g14
sg15
Nsg16
g8
sg17
Nsg18
S'views/docs/archetypeModules.html'
p99
sg20
I01
sg21
Nsg22
g23
stp100
asg31
(g8
g96
g26
g97
(dp101
g13
g14
sg15
Nsg16
g8
sg17
Nsg18
g99
sg20
I01
sg21
Nsg22
g23
stp102
sg15
S'Archetype Modules'
p103
sg35
F1423954119.2447369
sg36
F1423954119.1734681
sg37
(g8
S'views/docs/archetypeModules.md'
p104
g91
S'837f9cbb6bff6652c91b93af16aae04d-000'
p105
(dp106
g13
g14
sg15
Nsg16
g8
sg17
Nsg18
g104
sg20
Nsg21
Nsg22
g23
stp107
sg42
g43
sg44
F0.071268796920776367
ssS'doc:views/docs/tests.md|jinja|pandoc'
p108
(dp109
g6
(lp110
(g8
S'views/docs/tests.md|jinja'
p111
S'.md'
p112
S'a4899d6c6b479444e5cee8f0eefd34c3-001-jinja'
p113
(dp114
g13
g14
sg15
Nsg16
g8
sg17
Nsg18
S'views/docs/tests.md'
p115
sg20
I01
sg21
Nsg22
g23
stp116
a(g8
S'views/docs/tests.md|jinja|pandoc'
p117
g26
S'a4899d6c6b479444e5cee8f0eefd34c3-002-jinja-pandoc'
p118
(dp119
g13
g14
sg15
Nsg16
g8
sg17
Nsg18
S'views/docs/tests.html'
p120
sg20
I01
sg21
Nsg22
g23
stp121
asg31
(g8
g117
g26
g118
(dp122
g13
g14
sg15
Nsg16
g8
sg17
Nsg18
g120
sg20
I01
sg21
Nsg22
g23
stp123
sg15
S'Tests'
p124
sg35
F1423954119.0921099
sg36
F1423954119.022301
sg37
(g8
S'views/docs/tests.md'
p125
g112
S'a4899d6c6b479444e5cee8f0eefd34c3-000'
p126
(dp127
g13
g14
sg15
Nsg16
g8
sg17
Nsg18
g125
sg20
Nsg21
Nsg22
g23
stp128
sg42
g43
sg44
F0.0698089599609375
ssS'doc:views/docs/pe.md|jinja|pandoc'
p129
(dp130
g6
(lp131
(g8
S'views/docs/pe.md|jinja'
p132
S'.md'
p133
S'505300235051b54694f83075120665c2-001-jinja'
p134
(dp135
g13
g14
sg15
Nsg16
g8
sg17
Nsg18
S'views/docs/pe.md'
p136
sg20
I01
sg21
Nsg22
g23
stp137
a(g8
S'views/docs/pe.md|jinja|pandoc'
p138
g26
S'505300235051b54694f83075120665c2-002-jinja-pandoc'
p139
(dp140
g13
g14
sg15
Nsg16
g8
sg17
Nsg18
S'views/docs/pe.html'
p141
sg20
I01
sg21
Nsg22
g23
stp142
asg31
(g8
g138
g26
g139
(dp143
g13
g14
sg15
Nsg16
g8
sg17
Nsg18
g141
sg20
I01
sg21
Nsg22
g23
stp144
sg15
S'Pe'
p145
sg35
F1423954120.767
sg36
F1423954120.6879079
sg37
(g8
S'views/docs/pe.md'
p146
g133
S'505300235051b54694f83075120665c2-000'
p147
(dp148
g13
g14
sg15
Nsg16
g8
sg17
Nsg18
g146
sg20
Nsg21
Nsg22
g23
stp149
sg42
g43
sg44
F0.079092025756835938
ssS'doc:views/docs/test.md|jinja|pandoc'
p150
(dp151
g6
(lp152
(g8
S'views/docs/test.md|jinja'
p153
S'.md'
p154
S'60e1fbf2f545633e6348b1bb5160e97e-001-jinja'
p155
(dp156
g13
g14
sg15
Nsg16
g8
sg17
Nsg18
S'views/docs/test.md'
p157
sg20
I01
sg21
Nsg22
g23
stp158
a(g8
S'views/docs/test.md|jinja|pandoc'
p159
g26
S'60e1fbf2f545633e6348b1bb5160e97e-002-jinja-pandoc'
p160
(dp161
g13
g14
sg15
Nsg16
g8
sg17
Nsg18
S'views/docs/test.html'
p162
sg20
I01
sg21
Nsg22
g23
stp163
asg31
(g8
g159
g26
g160
(dp164
g13
g14
sg15
Nsg16
g8
sg17
Nsg18
g162
sg20
I01
sg21
Nsg22
g23
stp165
sg15
S'Test'
p166
sg35
F1423954120.5149109
sg36
F1423954120.44502
sg37
(g8
S'views/docs/test.md'
p167
g154
S'60e1fbf2f545633e6348b1bb5160e97e-000'
p168
(dp169
g13
g14
sg15
Nsg16
g8
sg17
Nsg18
g167
sg20
Nsg21
Nsg22
g23
stp170
sg42
g43
sg44
F0.069890975952148438
ssS'doc:views/docs/README.md|jinja|pandoc'
p171
(dp172
g6
(lp173
(g8
S'views/docs/README.md|jinja'
p174
S'.md'
p175
S'0430cfbe2f3ac82f9baeaf2775d20404-001-jinja'
p176
(dp177
g13
g14
sg15
Nsg16
g8
sg17
Nsg18
S'views/docs/README.md'
p178
sg20
I01
sg21
Nsg22
g23
stp179
a(g8
S'views/docs/README.md|jinja|pandoc'
p180
g26
S'0430cfbe2f3ac82f9baeaf2775d20404-002-jinja-pandoc'
p181
(dp182
g13
g14
sg15
Nsg16
g8
sg17
Nsg18
S'views/docs/README.html'
p183
sg20
I01
sg21
Nsg22
g23
stp184
asg31
(g8
g180
g26
g181
(dp185
g13
g14
sg15
Nsg16
g8
sg17
Nsg18
g183
sg20
I01
sg21
Nsg22
g23
stp186
sg15
S'Readme'
p187
sg35
F1423954119.7162449
sg36
F1423954119.6421649
sg37
(g8
S'views/docs/README.md'
p188
g175
S'0430cfbe2f3ac82f9baeaf2775d20404-000'
p189
(dp190
g13
g14
sg15
Nsg16
g8
sg17
Nsg18
g188
sg20
Nsg21
Nsg22
g23
stp191
sg42
g43
sg44
F0.074079990386962891
ssS'doc:views/docs/designPrinciples.md|jinja|pandoc'
p192
(dp193
g6
(lp194
(g8
S'views/docs/designPrinciples.md|jinja'
p195
S'.md'
p196
S'6da054190e86b12be070810a5d56ece4-001-jinja'
p197
(dp198
g13
g14
sg15
Nsg16
g8
sg17
Nsg18
S'views/docs/designPrinciples.md'
p199
sg20
I01
sg21
Nsg22
g23
stp200
a(g8
S'views/docs/designPrinciples.md|jinja|pandoc'
p201
g26
S'6da054190e86b12be070810a5d56ece4-002-jinja-pandoc'
p202
(dp203
g13
g14
sg15
Nsg16
g8
sg17
Nsg18
S'views/docs/designPrinciples.html'
p204
sg20
I01
sg21
Nsg22
g23
stp205
asg31
(g8
g201
g26
g202
(dp206
g13
g14
sg15
Nsg16
g8
sg17
Nsg18
g204
sg20
I01
sg21
Nsg22
g23
stp207
sg15
S'Design Principles'
p208
sg35
F1423954119.8175731
sg36
F1423954119.717015
sg37
(g8
S'views/docs/designPrinciples.md'
p209
g196
S'6da054190e86b12be070810a5d56ece4-000'
p210
(dp211
g13
g14
sg15
Nsg16
g8
sg17
Nsg18
g209
sg20
Nsg21
Nsg22
g23
stp212
sg42
g43
sg44
F0.10055804252624512
ssS'doc:views/docs/addendum.md|jinja|pandoc'
p213
(dp214
g6
(lp215
(g8
S'views/docs/addendum.md|jinja'
p216
S'.md'
p217
S'c266d44ddf09d1a578e39caf97c60379-001-jinja'
p218
(dp219
g13
g14
sg15
Nsg16
g8
sg17
Nsg18
S'views/docs/addendum.md'
p220
sg20
I01
sg21
Nsg22
g23
stp221
a(g8
S'views/docs/addendum.md|jinja|pandoc'
p222
g26
S'c266d44ddf09d1a578e39caf97c60379-002-jinja-pandoc'
p223
(dp224
g13
g14
sg15
Nsg16
g8
sg17
Nsg18
S'views/docs/addendum.html'
p225
sg20
I01
sg21
Nsg22
g23
stp226
asg31
(g8
g222
g26
g223
(dp227
g13
g14
sg15
Nsg16
g8
sg17
Nsg18
g225
sg20
I01
sg21
Nsg22
g23
stp228
sg15
S'Addendum'
p229
sg35
F1423954120.848242
sg36
F1423954120.7677591
sg37
(g8
S'views/docs/addendum.md'
p230
g217
S'c266d44ddf09d1a578e39caf97c60379-000'
p231
(dp232
g13
g14
sg15
Nsg16
g8
sg17
Nsg18
g230
sg20
Nsg21
Nsg22
g23
stp233
sg42
g43
sg44
F0.080482959747314453
ssS'doc:views/pattern-library/sass/objects/README.md|jinja|pandoc'
p234
(dp235
g6
(lp236
(g8
S'views/pattern-library/sass/objects/README.md|jinja'
p237
S'.md'
p238
S'eeee09656af69602d6d134e1b7c5d639-001-jinja'
p239
(dp240
g13
g14
sg15
Nsg16
g8
sg17
Nsg18
S'views/pattern-library/sass/objects/README.md'
p241
sg20
I01
sg21
Nsg22
g23
stp242
a(g8
S'views/pattern-library/sass/objects/README.md|jinja|pandoc'
p243
g26
S'eeee09656af69602d6d134e1b7c5d639-002-jinja-pandoc'
p244
(dp245
g13
g14
sg15
Nsg16
g8
sg17
Nsg18
S'views/pattern-library/sass/objects/README.html'
p246
sg20
I01
sg21
Nsg22
g23
stp247
asg31
(g8
g243
g26
g244
(dp248
g13
g14
sg15
Nsg16
g8
sg17
Nsg18
g246
sg20
I01
sg21
Nsg22
g23
stp249
sg15
S'Readme'
p250
sg35
F1423954119.566566
sg36
F1423954119.4975319
sg37
(g8
S'views/pattern-library/sass/objects/README.md'
p251
g238
S'eeee09656af69602d6d134e1b7c5d639-000'
p252
(dp253
g13
g14
sg15
Nsg16
g8
sg17
Nsg18
g251
sg20
Nsg21
Nsg22
g23
stp254
sg42
g43
sg44
F0.069034099578857422
ssS'doc:views/docs/frontendOps.md|jinja|pandoc'
p255
(dp256
g6
(lp257
(g8
S'views/docs/frontendOps.md|jinja'
p258
S'.md'
p259
S'82cc67fbbfea487225d452a6b4aa97e6-001-jinja'
p260
(dp261
g13
g14
sg15
Nsg16
g8
sg17
Nsg18
S'views/docs/frontendOps.md'
p262
sg20
I01
sg21
Nsg22
g23
stp263
a(g8
S'views/docs/frontendOps.md|jinja|pandoc'
p264
g26
S'82cc67fbbfea487225d452a6b4aa97e6-002-jinja-pandoc'
p265
(dp266
g13
g14
sg15
Nsg16
g8
sg17
Nsg18
S'views/docs/frontendOps.html'
p267
sg20
I01
sg21
Nsg22
g23
stp268
asg31
(g8
g264
g26
g265
(dp269
g13
g14
sg15
Nsg16
g8
sg17
Nsg18
g267
sg20
I01
sg21
Nsg22
g23
stp270
sg15
S'Frontend Ops'
p271
sg35
F1423954120.3780799
sg36
F1423954120.3015299
sg37
(g8
S'views/docs/frontendOps.md'
p272
g259
S'82cc67fbbfea487225d452a6b4aa97e6-000'
p273
(dp274
g13
g14
sg15
Nsg16
g8
sg17
Nsg18
g272
sg20
Nsg21
Nsg22
g23
stp275
sg42
g43
sg44
F0.076550006866455078
ssS'doc:views/docs/performanceTesting.md|jinja|pandoc'
p276
(dp277
g6
(lp278
(g8
S'views/docs/performanceTesting.md|jinja'
p279
S'.md'
p280
S'8f1bcc8d30d25348a29be970351a3e26-001-jinja'
p281
(dp282
g13
g14
sg15
Nsg16
g8
sg17
Nsg18
S'views/docs/performanceTesting.md'
p283
sg20
I01
sg21
Nsg22
g23
stp284
a(g8
S'views/docs/performanceTesting.md|jinja|pandoc'
p285
g26
S'8f1bcc8d30d25348a29be970351a3e26-002-jinja-pandoc'
p286
(dp287
g13
g14
sg15
Nsg16
g8
sg17
Nsg18
S'views/docs/performanceTesting.html'
p288
sg20
I01
sg21
Nsg22
g23
stp289
asg31
(g8
g285
g26
g286
(dp290
g13
g14
sg15
Nsg16
g8
sg17
Nsg18
g288
sg20
I01
sg21
Nsg22
g23
stp291
sg15
S'Performance Testing'
p292
sg35
F1423954119.641295
sg36
F1423954119.5672281
sg37
(g8
S'views/docs/performanceTesting.md'
p293
g280
S'8f1bcc8d30d25348a29be970351a3e26-000'
p294
(dp295
g13
g14
sg15
Nsg16
g8
sg17
Nsg18
g293
sg20
Nsg21
Nsg22
g23
stp296
sg42
g43
sg44
F0.074066877365112305
ssS'doc:views/docs/stylesheetCodingStandard.md|jinja|pandoc'
p297
(dp298
g6
(lp299
(g8
S'views/docs/stylesheetCodingStandard.md|jinja'
p300
S'.md'
p301
S'cab4438aebdb640c54c6ba8c7e7dc95f-001-jinja'
p302
(dp303
g13
g14
sg15
Nsg16
g8
sg17
Nsg18
S'views/docs/stylesheetCodingStandard.md'
p304
sg20
I01
sg21
Nsg22
g23
stp305
a(g8
S'views/docs/stylesheetCodingStandard.md|jinja|pandoc'
p306
g26
S'cab4438aebdb640c54c6ba8c7e7dc95f-002-jinja-pandoc'
p307
(dp308
g13
g14
sg15
Nsg16
g8
sg17
Nsg18
S'views/docs/stylesheetCodingStandard.html'
p309
sg20
I01
sg21
Nsg22
g23
stp310
asg31
(g8
g306
g26
g307
(dp311
g13
g14
sg15
Nsg16
g8
sg17
Nsg18
g309
sg20
I01
sg21
Nsg22
g23
stp312
sg15
S'Stylesheet Coding Standard'
p313
sg35
F1423954119.9336021
sg36
F1423954119.8183119
sg37
(g8
S'views/docs/stylesheetCodingStandard.md'
p314
g301
S'cab4438aebdb640c54c6ba8c7e7dc95f-000'
p315
(dp316
g13
g14
sg15
Nsg16
g8
sg17
Nsg18
g314
sg20
Nsg21
Nsg22
g23
stp317
sg42
g43
sg44
F0.11529016494750977
ssS'doc:views/pattern-library/sass/components/README.md|jinja|pandoc'
p318
(dp319
g6
(lp320
(g8
S'views/pattern-library/sass/components/README.md|jinja'
p321
S'.md'
p322
S'66983e87a888075694646055618b0baa-001-jinja'
p323
(dp324
g13
g14
sg15
Nsg16
g8
sg17
Nsg18
S'views/pattern-library/sass/components/README.md'
p325
sg20
I01
sg21
Nsg22
g23
stp326
a(g8
S'views/pattern-library/sass/components/README.md|jinja|pandoc'
p327
g26
S'66983e87a888075694646055618b0baa-002-jinja-pandoc'
p328
(dp329
g13
g14
sg15
Nsg16
g8
sg17
Nsg18
S'views/pattern-library/sass/components/README.html'
p330
sg20
I01
sg21
Nsg22
g23
stp331
asg31
(g8
g327
g26
g328
(dp332
g13
g14
sg15
Nsg16
g8
sg17
Nsg18
g330
sg20
I01
sg21
Nsg22
g23
stp333
sg15
S'Readme'
p334
sg35
F1423954120.300859
sg36
F1423954120.234308
sg37
(g8
S'views/pattern-library/sass/components/README.md'
p335
g322
S'66983e87a888075694646055618b0baa-000'
p336
(dp337
g13
g14
sg15
Nsg16
g8
sg17
Nsg18
g335
sg20
Nsg21
Nsg22
g23
stp338
sg42
g43
sg44
F0.066550970077514648
ssS'doc:views/pattern-library/sass/main.scss.md|jinja|pandoc'
p339
(dp340
g6
(lp341
(g8
S'views/pattern-library/sass/main.scss.md|jinja'
p342
S'.md'
p343
S'921241a8ce6d6fc433448e922a435851-001-jinja'
p344
(dp345
g13
g14
sg15
Nsg16
g8
sg17
Nsg18
S'views/pattern-library/sass/main.scss.md'
p346
sg20
I01
sg21
Nsg22
g23
stp347
a(g8
S'views/pattern-library/sass/main.scss.md|jinja|pandoc'
p348
g26
S'921241a8ce6d6fc433448e922a435851-002-jinja-pandoc'
p349
(dp350
g13
g14
sg15
Nsg16
g8
sg17
Nsg18
S'views/pattern-library/sass/main.scss.html'
p351
sg20
I01
sg21
Nsg22
g23
stp352
asg31
(g8
g348
g26
g349
(dp353
g13
g14
sg15
Nsg16
g8
sg17
Nsg18
g351
sg20
I01
sg21
Nsg22
g23
stp354
sg15
S'Main.Scss'
p355
sg35
F1423954120.0770941
sg36
F1423954120.0054021
sg37
(g8
S'views/pattern-library/sass/main.scss.md'
p356
g343
S'921241a8ce6d6fc433448e922a435851-000'
p357
(dp358
g13
g14
sg15
Nsg16
g8
sg17
Nsg18
g356
sg20
Nsg21
Nsg22
g23
stp359
sg42
g43
sg44
F0.071691989898681641
ssS'doc:views/docs/docs.md|jinja|pandoc'
p360
(dp361
g6
(lp362
(g8
S'views/docs/docs.md|jinja'
p363
S'.md'
p364
S'401b4bb1d64f59c777e1bf7b25842fd6-001-jinja'
p365
(dp366
g13
g14
sg15
Nsg16
g8
sg17
Nsg18
S'views/docs/docs.md'
p367
sg20
I01
sg21
Nsg22
g23
stp368
a(g8
S'views/docs/docs.md|jinja|pandoc'
p369
g26
S'401b4bb1d64f59c777e1bf7b25842fd6-002-jinja-pandoc'
p370
(dp371
g13
g14
sg15
Nsg16
g8
sg17
Nsg18
S'views/docs/docs.html'
p372
sg20
I01
sg21
Nsg22
g23
stp373
asg31
(g8
g369
g26
g370
(dp374
g13
g14
sg15
Nsg16
g8
sg17
Nsg18
g372
sg20
I01
sg21
Nsg22
g23
stp375
sg15
S'Docs'
p376
sg35
F1423954119.172749
sg36
F1423954119.0928061
sg37
(g8
S'views/docs/docs.md'
p377
g364
S'401b4bb1d64f59c777e1bf7b25842fd6-000'
p378
(dp379
g13
g14
sg15
Nsg16
g8
sg17
Nsg18
g377
sg20
Nsg21
Nsg22
g23
stp380
sg42
g43
sg44
F0.079942941665649414
ssS'doc:views/pattern-library/sass/layout/layout.md|jinja|pandoc'
p381
(dp382
g6
(lp383
(g8
S'views/pattern-library/sass/layout/layout.md|jinja'
p384
S'.md'
p385
S'df28fd3b2e5882f84b50e55e19d271e4-001-jinja'
p386
(dp387
g13
g14
sg15
Nsg16
g8
sg17
Nsg18
S'views/pattern-library/sass/layout/layout.md'
p388
sg20
I01
sg21
Nsg22
g23
stp389
a(g8
S'views/pattern-library/sass/layout/layout.md|jinja|pandoc'
p390
g26
S'df28fd3b2e5882f84b50e55e19d271e4-002-jinja-pandoc'
p391
(dp392
g13
g14
sg15
Nsg16
g8
sg17
Nsg18
S'views/pattern-library/sass/layout/layout.html'
p393
sg20
I01
sg21
Nsg22
g23
stp394
asg31
(g8
g390
g26
g391
(dp395
g13
g14
sg15
Nsg16
g8
sg17
Nsg18
g393
sg20
I01
sg21
Nsg22
g23
stp396
sg15
S'Layout'
p397
sg35
F1423954120.0044041
sg36
F1423954119.934365
sg37
(g8
S'views/pattern-library/sass/layout/layout.md'
p398
g385
S'df28fd3b2e5882f84b50e55e19d271e4-000'
p399
(dp400
g13
g14
sg15
Nsg16
g8
sg17
Nsg18
g398
sg20
Nsg21
Nsg22
g23
stp401
sg42
g43
sg44
F0.070039033889770508
ssS'doc:views/pattern-library/sass/index.md|jinja|pandoc'
p402
(dp403
g6
(lp404
(g8
S'views/pattern-library/sass/index.md|jinja'
p405
S'.md'
p406
S'b10f159827a2de71b23545f0ee4a7148-001-jinja'
p407
(dp408
g13
g14
sg15
Nsg16
g8
sg17
Nsg18
S'views/pattern-library/sass/index.md'
p409
sg20
I01
sg21
Nsg22
g23
stp410
a(g8
S'views/pattern-library/sass/index.md|jinja|pandoc'
p411
g26
S'b10f159827a2de71b23545f0ee4a7148-002-jinja-pandoc'
p412
(dp413
g13
g14
sg15
Nsg16
g8
sg17
Nsg18
S'views/pattern-library/sass/index.html'
p414
sg20
I01
sg21
Nsg22
g23
stp415
asg31
(g8
g411
g26
g412
(dp416
g13
g14
sg15
Nsg16
g8
sg17
Nsg18
g414
sg20
I01
sg21
Nsg22
g23
stp417
sg15
S'Sass'
p418
sg35
F1423954120.6105759
sg36
F1423954120.5159171
sg37
(g8
S'views/pattern-library/sass/index.md'
p419
g406
S'b10f159827a2de71b23545f0ee4a7148-000'
p420
(dp421
g13
g14
sg15
Nsg16
g8
sg17
Nsg18
g419
sg20
Nsg21
Nsg22
g23
stp422
sg42
g43
sg44
F0.094658851623535156
ssS'doc:views/pattern-library/sass/colorpallet.md|jinja|pandoc'
p423
(dp424
g6
(lp425
(g8
S'views/pattern-library/sass/colorpallet.md|jinja'
p426
S'.md'
p427
S'e32704144f309b024017e0c2e3b392e8-001-jinja'
p428
(dp429
g13
g14
sg15
Nsg16
g8
sg17
Nsg18
S'views/pattern-library/sass/colorpallet.md'
p430
sg20
I01
sg21
Nsg22
g23
stp431
a(g8
S'views/pattern-library/sass/colorpallet.md|jinja|pandoc'
p432
g26
S'e32704144f309b024017e0c2e3b392e8-002-jinja-pandoc'
p433
(dp434
g13
g14
sg15
Nsg16
g8
sg17
Nsg18
S'views/pattern-library/sass/colorpallet.html'
p435
sg20
I01
sg21
Nsg22
g23
stp436
asg31
(g8
g432
g26
g433
(dp437
g13
g14
sg15
Nsg16
g8
sg17
Nsg18
g435
sg20
I01
sg21
Nsg22
g23
stp438
sg15
S'Colorpallet'
p439
sg35
F1423954119.3126271
sg36
F1423954119.2454519
sg37
(g8
S'views/pattern-library/sass/colorpallet.md'
p440
g427
S'e32704144f309b024017e0c2e3b392e8-000'
p441
(dp442
g13
g14
sg15
Nsg16
g8
sg17
Nsg18
g440
sg20
Nsg21
Nsg22
g23
stp443
sg42
g43
sg44
F0.067175149917602539
ssS'doc:views/docs/architecture.md|jinja|pandoc'
p444
(dp445
g6
(lp446
(g8
S'views/docs/architecture.md|jinja'
p447
S'.md'
p448
S'077ec4479482769e200aa65bea38ae3b-001-jinja'
p449
(dp450
g13
g14
sg15
Nsg16
g8
sg17
Nsg18
S'views/docs/architecture.md'
p451
sg20
I01
sg21
Nsg22
g23
stp452
a(g8
S'views/docs/architecture.md|jinja|pandoc'
p453
g26
S'077ec4479482769e200aa65bea38ae3b-002-jinja-pandoc'
p454
(dp455
g13
g14
sg15
Nsg16
g8
sg17
Nsg18
S'views/docs/architecture.html'
p456
sg20
I01
sg21
Nsg22
g23
stp457
asg31
(g8
g453
g26
g454
(dp458
g13
g14
sg15
Nsg16
g8
sg17
Nsg18
g456
sg20
I01
sg21
Nsg22
g23
stp459
sg15
S'Architecture'
p460
sg35
F1423954119.4272051
sg36
F1423954119.313379
sg37
(g8
S'views/docs/architecture.md'
p461
g448
S'077ec4479482769e200aa65bea38ae3b-000'
p462
(dp463
g13
g14
sg15
Nsg16
g8
sg17
Nsg18
g461
sg20
Nsg21
Nsg22
g23
stp464
sg42
g43
sg44
F0.11382603645324707
ssS'doc:views/pattern-library/sass/layout/breakpoints.md|jinja|pandoc'
p465
(dp466
g6
(lp467
(g8
S'views/pattern-library/sass/layout/breakpoints.md|jinja'
p468
S'.md'
p469
S'6f388d8ea6adcd16ae783a2c9c00be98-001-jinja'
p470
(dp471
g13
g14
sg15
Nsg16
g8
sg17
Nsg18
S'views/pattern-library/sass/layout/breakpoints.md'
p472
sg20
I01
sg21
Nsg22
g23
stp473
a(g8
S'views/pattern-library/sass/layout/breakpoints.md|jinja|pandoc'
p474
g26
S'6f388d8ea6adcd16ae783a2c9c00be98-002-jinja-pandoc'
p475
(dp476
g13
g14
sg15
Nsg16
g8
sg17
Nsg18
S'views/pattern-library/sass/layout/breakpoints.html'
p477
sg20
I01
sg21
Nsg22
g23
stp478
asg31
(g8
g474
g26
g475
(dp479
g13
g14
sg15
Nsg16
g8
sg17
Nsg18
g477
sg20
I01
sg21
Nsg22
g23
stp480
sg15
S'Breakpoints'
p481
sg35
F1423954119.4966691
sg36
F1423954119.427917
sg37
(g8
S'views/pattern-library/sass/layout/breakpoints.md'
p482
g469
S'6f388d8ea6adcd16ae783a2c9c00be98-000'
p483
(dp484
g13
g14
sg15
Nsg16
g8
sg17
Nsg18
g482
sg20
Nsg21
Nsg22
g23
stp485
sg42
g43
sg44
F0.068752050399780273
ssS'doc:views/pattern-library/sass/utilities.md|jinja|pandoc'
p486
(dp487
g6
(lp488
(g8
S'views/pattern-library/sass/utilities.md|jinja'
p489
S'.md'
p490
S'69a8e7c6d00b2ec673f99db63082c10a-001-jinja'
p491
(dp492
g13
g14
sg15
Nsg16
g8
sg17
Nsg18
S'views/pattern-library/sass/utilities.md'
p493
sg20
I01
sg21
Nsg22
g23
stp494
a(g8
S'views/pattern-library/sass/utilities.md|jinja|pandoc'
p495
g26
S'69a8e7c6d00b2ec673f99db63082c10a-002-jinja-pandoc'
p496
(dp497
g13
g14
sg15
Nsg16
g8
sg17
Nsg18
S'views/pattern-library/sass/utilities.html'
p498
sg20
I01
sg21
Nsg22
g23
stp499
asg31
(g8
g495
g26
g496
(dp500
g13
g14
sg15
Nsg16
g8
sg17
Nsg18
g498
sg20
I01
sg21
Nsg22
g23
stp501
sg15
S'Utilities'
p502
sg35
F1423954120.444346
sg36
F1423954120.3788259
sg37
(g8
S'views/pattern-library/sass/utilities.md'
p503
g490
S'69a8e7c6d00b2ec673f99db63082c10a-000'
p504
(dp505
g13
g14
sg15
Nsg16
g8
sg17
Nsg18
g503
sg20
Nsg21
Nsg22
g23
stp506
sg42
g43
sg44
F0.065520048141479492
ssS'doc:views/docs/htmlCodingStandard.md|jinja|pandoc'
p507
(dp508
g6
(lp509
(g8
S'views/docs/htmlCodingStandard.md|jinja'
p510
S'.md'
p511
S'ee43288a3694576ef6258ac28e3d7c9a-001-jinja'
p512
(dp513
g13
g14
sg15
Nsg16
g8
sg17
Nsg18
S'views/docs/htmlCodingStandard.md'
p514
sg20
I01
sg21
Nsg22
g23
stp515
a(g8
S'views/docs/htmlCodingStandard.md|jinja|pandoc'
p516
g26
S'ee43288a3694576ef6258ac28e3d7c9a-002-jinja-pandoc'
p517
(dp518
g13
g14
sg15
Nsg16
g8
sg17
Nsg18
S'views/docs/htmlCodingStandard.html'
p519
sg20
I01
sg21
Nsg22
g23
stp520
asg31
(g8
g516
g26
g517
(dp521
g13
g14
sg15
Nsg16
g8
sg17
Nsg18
g519
sg20
I01
sg21
Nsg22
g23
stp522
sg15
S'Html Coding Standard'
p523
sg35
F1423954119.0215371
sg36
F1423954118.9432321
sg37
(g8
S'views/docs/htmlCodingStandard.md'
p524
g511
S'ee43288a3694576ef6258ac28e3d7c9a-000'
p525
(dp526
g13
g14
sg15
Nsg16
g8
sg17
Nsg18
g524
sg20
Nsg21
Nsg22
g23
stp527
sg42
g43
sg44
F0.07830500602722168
ssS'doc:views/docs/gettingStarted.md|jinja|pandoc'
p528
(dp529
g6
(lp530
(g8
S'views/docs/gettingStarted.md|jinja'
p531
S'.md'
p532
S'7cc4fe185b40351e78878ab9eb9df132-001-jinja'
p533
(dp534
g13
g14
sg15
Nsg16
g8
sg17
Nsg18
S'views/docs/gettingStarted.md'
p535
sg20
I01
sg21
Nsg22
g23
stp536
a(g8
S'views/docs/gettingStarted.md|jinja|pandoc'
p537
g26
S'7cc4fe185b40351e78878ab9eb9df132-002-jinja-pandoc'
p538
(dp539
g13
g14
sg15
Nsg16
g8
sg17
Nsg18
S'views/docs/gettingStarted.html'
p540
sg20
I01
sg21
Nsg22
g23
stp541
asg31
(g8
g537
g26
g538
(dp542
g13
g14
sg15
Nsg16
g8
sg17
Nsg18
g540
sg20
I01
sg21
Nsg22
g23
stp543
sg15
S'Getting Started'
p544
sg35
F1423954120.2334809
sg36
F1423954120.1539471
sg37
(g8
S'views/docs/gettingStarted.md'
p545
g532
S'7cc4fe185b40351e78878ab9eb9df132-000'
p546
(dp547
g13
g14
sg15
Nsg16
g8
sg17
Nsg18
g545
sg20
Nsg21
Nsg22
g23
stp548
sg42
g43
sg44
F0.079533815383911133
sssS'filters_used'
p549
(lp550
S'jinja'
p551
aS'pandoc'
p552
aS'jinja'
p553
aS'pandoc'
p554
aS'jinja'
p555
aS'pandoc'
p556
aS'jinja'
p557
aS'pandoc'
p558
aS'jinja'
p559
aS'pandoc'
p560
aS'jinja'
p561
aS'pandoc'
p562
aS'jinja'
p563
aS'pandoc'
p564
aS'jinja'
p565
aS'pandoc'
p566
aS'jinja'
p567
aS'pandoc'
p568
aS'jinja'
p569
aS'pandoc'
p570
aS'jinja'
p571
aS'pandoc'
p572
aS'jinja'
p573
aS'pandoc'
p574
aS'jinja'
p575
aS'pandoc'
p576
aS'jinja'
p577
aS'pandoc'
p578
aS'jinja'
p579
aS'pandoc'
p580
aS'jinja'
p581
aS'pandoc'
p582
aS'jinja'
p583
aS'pandoc'
p584
aS'jinja'
p585
aS'pandoc'
p586
aS'jinja'
p587
aS'pandoc'
p588
aS'jinja'
p589
aS'pandoc'
p590
aS'jinja'
p591
aS'pandoc'
p592
aS'jinja'
p593
aS'pandoc'
p594
aS'jinja'
p595
aS'pandoc'
p596
aS'jinja'
p597
aS'pandoc'
p598
aS'jinja'
p599
aS'pandoc'
p600
ag551
ag552
ag553
ag554
ag555
ag556
ag557
ag558
ag559
ag560
ag561
ag562
ag563
ag564
ag565
ag566
ag567
ag568
ag569
ag570
ag571
ag572
ag573
ag574
ag575
ag576
ag577
ag578
ag579
ag580
ag581
ag582
ag583
ag584
ag585
ag586
ag587
ag588
ag589
ag590
ag591
ag592
ag593
ag594
ag595
ag596
ag597
ag598
ag599
ag600
ag551
ag552
ag553
ag554
ag555
ag556
ag557
ag558
ag559
ag560
ag561
ag562
ag563
ag564
ag565
ag566
ag567
ag568
ag569
ag570
ag571
ag572
ag573
ag574
ag575
ag576
ag577
ag578
ag579
ag580
ag581
ag582
ag583
ag584
ag585
ag586
ag587
ag588
ag589
ag590
ag591
ag592
ag593
ag594
ag595
ag596
ag597
ag598
ag599
ag600
asS'uuid'
p601
S'9c384165-3373-44f4-8474-c842d3da2884'
p602
sS'doc_keys'
p603
(dp604
g433
S'doc:views/pattern-library/sass/colorpallet.md|jinja|pandoc'
p605
sg139
S'doc:views/docs/pe.md|jinja|pandoc'
p606
sg27
S'doc:views/pattern-library/sass/components.md|jinja|pandoc'
p607
sg223
S'doc:views/docs/addendum.md|jinja|pandoc'
p608
sg286
S'doc:views/docs/performanceTesting.md|jinja|pandoc'
p609
sg475
S'doc:views/pattern-library/sass/layout/breakpoints.md|jinja|pandoc'
p610
sg370
S'doc:views/docs/docs.md|jinja|pandoc'
p611
sg118
S'doc:views/docs/tests.md|jinja|pandoc'
p612
sg391
S'doc:views/pattern-library/sass/layout/layout.md|jinja|pandoc'
p613
sg76
S'doc:views/pattern-library/sass/objects.md|jinja|pandoc'
p614
sg538
S'doc:views/docs/gettingStarted.md|jinja|pandoc'
p615
sg328
S'doc:views/pattern-library/sass/components/README.md|jinja|pandoc'
p616
sg517
S'doc:views/docs/htmlCodingStandard.md|jinja|pandoc'
p617
sg412
S'doc:views/pattern-library/sass/index.md|jinja|pandoc'
p618
sg202
S'doc:views/docs/designPrinciples.md|jinja|pandoc'
p619
sg496
S'doc:views/pattern-library/sass/utilities.md|jinja|pandoc'
p620
sg454
S'doc:views/docs/architecture.md|jinja|pandoc'
p621
sg265
S'doc:views/docs/frontendOps.md|jinja|pandoc'
p622
sg55
S'doc:views/docs/stylesheetTesting.md|jinja|pandoc'
p623
sg181
S'doc:views/docs/README.md|jinja|pandoc'
p624
sg160
S'doc:views/docs/test.md|jinja|pandoc'
p625
sg349
S'doc:views/pattern-library/sass/main.scss.md|jinja|pandoc'
p626
sg97
S'doc:views/docs/archetypeModules.md|jinja|pandoc'
p627
sg307
S'doc:views/docs/stylesheetCodingStandard.md|jinja|pandoc'
p628
sg244
S'doc:views/pattern-library/sass/objects/README.md|jinja|pandoc'
p629
ss.