(dp1
S'doc:views/pattern-library/sass/components.md|jinja|pandoc'
p2
V[["environment", {}], ["pandoc", {"args": "-t html5"}]]
p3
sS'doc:views/docs/stylesheetTesting.md|jinja|pandoc'
p4
V[["environment", {}], ["pandoc", {"args": "-t html5"}]]
p5
sS'bundle:site'
p6
V[["environment", {}]]
p7
sS'doc:views/pattern-library/sass/objects.md|jinja|pandoc'
p8
V[["environment", {}], ["pandoc", {"args": "-t html5"}]]
p9
sS'doc:views/docs/archetypeModules.md|jinja|pandoc'
p10
V[["environment", {}], ["pandoc", {"args": "-t html5"}]]
p11
sS'doc:views/docs/tests.md|jinja|pandoc'
p12
V[["environment", {}], ["pandoc", {"args": "-t html5"}]]
p13
sS'doc:views/docs/pe.md|jinja|pandoc'
p14
V[["environment", {}], ["pandoc", {"args": "-t html5"}]]
p15
sS'doc:views/docs/test.md|jinja|pandoc'
p16
V[["environment", {}], ["pandoc", {"args": "-t html5"}]]
p17
sS'doc:views/docs/README.md|jinja|pandoc'
p18
V[["environment", {}], ["pandoc", {"args": "-t html5"}]]
p19
sS'doc:views/docs/designPrinciples.md|jinja|pandoc'
p20
V[["environment", {}], ["pandoc", {"args": "-t html5"}]]
p21
sS'doc:views/docs/addendum.md|jinja|pandoc'
p22
V[["environment", {}], ["pandoc", {"args": "-t html5"}]]
p23
sS'doc:views/pattern-library/sass/objects/README.md|jinja|pandoc'
p24
V[["environment", {}], ["pandoc", {"args": "-t html5"}]]
p25
sS'doc:views/docs/frontendOps.md|jinja|pandoc'
p26
V[["environment", {}], ["pandoc", {"args": "-t html5"}]]
p27
sS'doc:views/docs/performanceTesting.md|jinja|pandoc'
p28
V[["environment", {}], ["pandoc", {"args": "-t html5"}]]
p29
sS'doc:views/docs/stylesheetCodingStandard.md|jinja|pandoc'
p30
V[["environment", {}], ["pandoc", {"args": "-t html5"}]]
p31
sS'doc:views/pattern-library/sass/components/README.md|jinja|pandoc'
p32
V[["environment", {}], ["pandoc", {"args": "-t html5"}]]
p33
sS'pattern:*.html|htmlsections'
p34
V[["environment", {}]]
p35
sS'doc:views/pattern-library/sass/main.scss.md|jinja|pandoc'
p36
V[["environment", {}], ["pandoc", {"args": "-t html5"}]]
p37
sS'doc:views/docs/docs.md|jinja|pandoc'
p38
V[["environment", {}], ["pandoc", {"args": "-t html5"}]]
p39
sS'doc:views/pattern-library/sass/layout/layout.md|jinja|pandoc'
p40
V[["environment", {}], ["pandoc", {"args": "-t html5"}]]
p41
sS'doc:views/pattern-library/sass/index.md|jinja|pandoc'
p42
V[["environment", {}], ["pandoc", {"args": "-t html5"}]]
p43
sS'doc:views/pattern-library/sass/colorpallet.md|jinja|pandoc'
p44
V[["environment", {}], ["pandoc", {"args": "-t html5"}]]
p45
sS'doc:views/docs/architecture.md|jinja|pandoc'
p46
V[["environment", {}], ["pandoc", {"args": "-t html5"}]]
p47
sS'pattern:*.scss|idio'
p48
V[["environment", {}]]
p49
sS'pattern:*.md|jinja|pandoc'
p50
V[["environment", {}], ["pandoc", {"args": "-t html5"}]]
p51
sS'doc:views/pattern-library/sass/layout/breakpoints.md|jinja|pandoc'
p52
V[["environment", {}], ["pandoc", {"args": "-t html5"}]]
p53
sS'doc:views/pattern-library/sass/utilities.md|jinja|pandoc'
p54
V[["environment", {}], ["pandoc", {"args": "-t html5"}]]
p55
sS'doc:views/docs/htmlCodingStandard.md|jinja|pandoc'
p56
V[["environment", {}], ["pandoc", {"args": "-t html5"}]]
p57
sS'doc:views/docs/gettingStarted.md|jinja|pandoc'
p58
V[["environment", {}], ["pandoc", {"args": "-t html5"}]]
p59
s.